target datalayout = "e-m:e-p270:32:32-p271:32:32-p272:64:64-i64:64-i128:128-f80:128-n8:16:32:64-S128"
target triple = "x86_64-pc-linux-gnu"

%struct._someip_payload_parameter_string = type { i32, ptr, ptr, i8, i32, i32, i8, i32 }

@.str.310 = private unnamed_addr constant [5 x i8] c"true\00", align 1

; Function Attrs: null_pointer_is_valid sspstrong uwtable
define internal void @someip_parameter_strings_big_endian_set_cb(ptr noundef %0, ptr noundef %1, i32 noundef %2, ptr noundef %3, ptr noundef %4) #0 {
  %6 = alloca ptr, align 8
  %7 = alloca ptr, align 8
  %8 = alloca i32, align 4
  %9 = alloca ptr, align 8
  %10 = alloca ptr, align 8
  %11 = alloca ptr, align 8
  store ptr %0, ptr %6, align 8
  store ptr %1, ptr %7, align 8
  store i32 %2, ptr %8, align 4
  store ptr %3, ptr %9, align 8
  store ptr %4, ptr %10, align 8
  call void @llvm.lifetime.start.p0(i64 8, ptr %11) #19
  %12 = load ptr, ptr %7, align 8
  %13 = load i32, ptr %8, align 4
  %14 = zext i32 %13 to i64
  %15 = call noalias ptr @g_strndup(ptr noundef %12, i64 noundef %14)
  store ptr %15, ptr %11, align 8
  %16 = load ptr, ptr %11, align 8
  %17 = icmp ne ptr %16, null
  br i1 %17, label %18, label %25

18:                                               ; preds = %5
  %19 = load ptr, ptr %11, align 8
  %20 = call i32 @g_ascii_strcasecmp(ptr noundef %19, ptr noundef @.str.310)
  %21 = icmp eq i32 %20, 0
  br i1 %21, label %22, label %25

22:                                               ; preds = %18
  %23 = load ptr, ptr %6, align 8
  %24 = getelementptr inbounds nuw %struct._someip_payload_parameter_string, ptr %23, i32 0, i32 6
  store i8 1, ptr %24, align 4
  br label %28

25:                                               ; preds = %18, %5
  %26 = load ptr, ptr %6, align 8
  %27 = getelementptr inbounds nuw %struct._someip_payload_parameter_string, ptr %26, i32 0, i32 6
  store i8 0, ptr %27, align 4
  br label %28

28:                                               ; preds = %25, %22
  %29 = load ptr, ptr %11, align 8
  call void @g_free(ptr noundef %29)
  call void @llvm.lifetime.end.p0(i64 8, ptr %11) #19
  ret void
}